target datalayout = "e-m:e-p270:32:32-p271:32:32-p272:64:64-i64:64-i128:128-f80:128-n8:16:32:64-S128"
target triple = "x86_64-pc-linux-gnu"

; Function Attrs: mustprogress uwtable
define internal noundef float @_ZL23xtc_get_next_frame_timeP8_IO_FILEP3XDRiPb(ptr noundef %0, ptr noundef %1, i32 noundef %2, ptr noundef %3) #0 {
  %5 = alloca float, align 4
  %6 = alloca ptr, align 8
  %7 = alloca ptr, align 8
  %8 = alloca i32, align 4
  %9 = alloca ptr, align 8
  %10 = alloca i64, align 8
  %11 = alloca float, align 4
  %12 = alloca i32, align 4
  %13 = alloca i32, align 4
  %14 = alloca i32, align 4
  store ptr %0, ptr %6, align 8, !tbaa !31
  store ptr %1, ptr %7, align 8, !tbaa !17
  store i32 %2, ptr %8, align 4, !tbaa !13
  store ptr %3, ptr %9, align 8, !tbaa !78
  call void @llvm.lifetime.start.p0(i64 8, ptr %10) #11
  call void @llvm.lifetime.start.p0(i64 4, ptr %11) #11
  call void @llvm.lifetime.start.p0(i64 4, ptr %12) #11
  call void @llvm.lifetime.start.p0(i64 4, ptr %13) #11
  %15 = load ptr, ptr %9, align 8, !tbaa !78
  store i8 0, ptr %15, align 1, !tbaa !29
  %16 = load ptr, ptr %6, align 8, !tbaa !31
  %17 = call noundef i64 @_Z9gmx_ftellP8_IO_FILE(ptr noundef %16)
  store i64 %17, ptr %10, align 8, !tbaa !23
  %18 = icmp slt i64 %17, 0
  br i1 %18, label %19, label %20

19:                                               ; preds = %4
  store float -1.000000e+00, ptr %5, align 4
  store i32 1, ptr %14, align 4
  br label %53

20:                                               ; preds = %4
  %21 = load ptr, ptr %7, align 8, !tbaa !17
  %22 = call noundef i32 @_Z7xdr_intP3XDRPi(ptr noundef %21, ptr noundef %12)
  br label %23

23:                                               ; preds = %52, %20
  br label %24

24:                                               ; preds = %23
  %25 = load ptr, ptr %6, align 8, !tbaa !31
  %26 = load ptr, ptr %7, align 8, !tbaa !17
  %27 = load i32, ptr %8, align 4, !tbaa !13
  %28 = call noundef i32 @_ZL19xtc_at_header_startP8_IO_FILEP3XDRiPiPf(ptr noundef %25, ptr noundef %26, i32 noundef %27, ptr noundef %12, ptr noundef %11)
  store i32 %28, ptr %13, align 4, !tbaa !13
  %29 = load i32, ptr %13, align 4, !tbaa !13
  %30 = icmp eq i32 %29, 1
  br i1 %30, label %31, label %41

31:                                               ; preds = %24
  %32 = load ptr, ptr %9, align 8, !tbaa !78
  store i8 1, ptr %32, align 1, !tbaa !29
  %33 = load ptr, ptr %6, align 8, !tbaa !31
  %34 = load i64, ptr %10, align 8, !tbaa !23
  %35 = call noundef i32 @_Z9gmx_fseekP8_IO_FILEli(ptr noundef %33, i64 noundef %34, i32 noundef 0)
  %36 = icmp ne i32 %35, 0
  br i1 %36, label %37, label %39

37:                                               ; preds = %31
  %38 = load ptr, ptr %9, align 8, !tbaa !78
  store i8 0, ptr %38, align 1, !tbaa !29
  store float -1.000000e+00, ptr %5, align 4
  store i32 1, ptr %14, align 4
  br label %53

39:                                               ; preds = %31
  %40 = load float, ptr %11, align 4, !tbaa !15
  store float %40, ptr %5, align 4
  store i32 1, ptr %14, align 4
  br label %53

41:                                               ; preds = %24
  %42 = load i32, ptr %13, align 4, !tbaa !13
  %43 = icmp eq i32 %42, -1
  br i1 %43, label %44, label %51

44:                                               ; preds = %41
  %45 = load ptr, ptr %6, align 8, !tbaa !31
  %46 = load i64, ptr %10, align 8, !tbaa !23
  %47 = call noundef i32 @_Z9gmx_fseekP8_IO_FILEli(ptr noundef %45, i64 noundef %46, i32 noundef 0)
  %48 = icmp ne i32 %47, 0
  br i1 %48, label %49, label %50

49:                                               ; preds = %44
  store float -1.000000e+00, ptr %5, align 4
  store i32 1, ptr %14, align 4
  br label %53

50:                                               ; preds = %44
  store float -1.000000e+00, ptr %5, align 4
  store i32 1, ptr %14, align 4
  br label %53

51:                                               ; preds = %41
  br label %52

52:                                               ; preds = %51
  br label %23, !llvm.loop !80

53:                                               ; preds = %50, %49, %39, %37, %19
  call void @llvm.lifetime.end.p0(i64 4, ptr %13) #11
  call void @llvm.lifetime.end.p0(i64 4, ptr %12) #11
  call void @llvm.lifetime.end.p0(i64 4, ptr %11) #11
  call void @llvm.lifetime.end.p0(i64 8, ptr %10) #11
  %54 = load float, ptr %5, align 4
  ret float %54
}

; Function Attrs: mustprogress uwtable
define internal noundef float @_ZL19xdr_xtc_estimate_dtP8_IO_FILEP3XDRiPb(ptr noundef %0, ptr noundef %1, i32 noundef %2, ptr noundef %3) #0 {
  %5 = alloca float, align 4
  %6 = alloca ptr, align 8
  %7 = alloca ptr, align 8
  %8 = alloca i32, align 4
  %9 = alloca ptr, align 8
  %10 = alloca float, align 4
  %11 = alloca float, align 4
  %12 = alloca i64, align 8
  %13 = alloca i32, align 4
  store ptr %0, ptr %6, align 8, !tbaa !31
  store ptr %1, ptr %7, align 8, !tbaa !17
  store i32 %2, ptr %8, align 4, !tbaa !13
  store ptr %3, ptr %9, align 8, !tbaa !78
  call void @llvm.lifetime.start.p0(i64 4, ptr %10) #11
  call void @llvm.lifetime.start.p0(i64 4, ptr %11) #11
  call void @llvm.lifetime.start.p0(i64 8, ptr %12) #11
  %14 = load ptr, ptr %9, align 8, !tbaa !78
  store i8 0, ptr %14, align 1, !tbaa !29
  %15 = load ptr, ptr %6, align 8, !tbaa !31
  %16 = call noundef i64 @_Z9gmx_ftellP8_IO_FILE(ptr noundef %15)
  store i64 %16, ptr %12, align 8, !tbaa !23
  %17 = icmp slt i64 %16, 0
  br i1 %17, label %18, label %19

18:                                               ; preds = %4
  store float -1.000000e+00, ptr %5, align 4
  store i32 1, ptr %13, align 4
  br label %51

19:                                               ; preds = %4
  %20 = load ptr, ptr %6, align 8, !tbaa !31
  %21 = load ptr, ptr %7, align 8, !tbaa !17
  %22 = load i32, ptr %8, align 4, !tbaa !13
  %23 = load ptr, ptr %9, align 8, !tbaa !78
  %24 = call noundef float @_ZL26xtc_get_current_frame_timeP8_IO_FILEP3XDRiPb(ptr noundef %20, ptr noundef %21, i32 noundef %22, ptr noundef %23)
  store float %24, ptr %11, align 4, !tbaa !15
  %25 = load ptr, ptr %9, align 8, !tbaa !78
  %26 = load i8, ptr %25, align 1, !tbaa !29, !range !35, !noundef !36
  %27 = trunc i8 %26 to i1
  br i1 %27, label %29, label %28

28:                                               ; preds = %19
  store float -1.000000e+00, ptr %5, align 4
  store i32 1, ptr %13, align 4
  br label %51

29:                                               ; preds = %19
  %30 = load ptr, ptr %6, align 8, !tbaa !31
  %31 = load ptr, ptr %7, align 8, !tbaa !17
  %32 = load i32, ptr %8, align 4, !tbaa !13
  %33 = load ptr, ptr %9, align 8, !tbaa !78
  %34 = call noundef float @_ZL23xtc_get_next_frame_timeP8_IO_FILEP3XDRiPb(ptr noundef %30, ptr noundef %31, i32 noundef %32, ptr noundef %33)
  store float %34, ptr %10, align 4, !tbaa !15
  %35 = load ptr, ptr %9, align 8, !tbaa !78
  %36 = load i8, ptr %35, align 1, !tbaa !29, !range !35, !noundef !36
  %37 = trunc i8 %36 to i1
  br i1 %37, label %39, label %38

38:                                               ; preds = %29
  store float -1.000000e+00, ptr %5, align 4
  store i32 1, ptr %13, align 4
  br label %51

39:                                               ; preds = %29
  %40 = load float, ptr %11, align 4, !tbaa !15
  %41 = load float, ptr %10, align 4, !tbaa !15
  %42 = fsub float %41, %40
  store float %42, ptr %10, align 4, !tbaa !15
  %43 = load ptr, ptr %6, align 8, !tbaa !31
  %44 = load i64, ptr %12, align 8, !tbaa !23
  %45 = call noundef i32 @_Z9gmx_fseekP8_IO_FILEli(ptr noundef %43, i64 noundef %44, i32 noundef 0)
  %46 = icmp ne i32 0, %45
  br i1 %46, label %47, label %49

47:                                               ; preds = %39
  %48 = load ptr, ptr %9, align 8, !tbaa !78
  store i8 0, ptr %48, align 1, !tbaa !29
  store float -1.000000e+00, ptr %5, align 4
  store i32 1, ptr %13, align 4
  br label %51

49:                                               ; preds = %39
  %50 = load float, ptr %10, align 4, !tbaa !15
  store float %50, ptr %5, align 4
  store i32 1, ptr %13, align 4
  br label %51

51:                                               ; preds = %49, %47, %38, %28, %18
  call void @llvm.lifetime.end.p0(i64 8, ptr %12) #11
  call void @llvm.lifetime.end.p0(i64 4, ptr %11) #11
  call void @llvm.lifetime.end.p0(i64 4, ptr %10) #11
  %52 = load float, ptr %5, align 4
  ret float %52
}