; Function Attrs: mustprogress uwtable
define internal fastcc noundef float @_ZL19xdr_xtc_estimate_dtP8_IO_FILEP3XDRiPb(ptr noundef %0, ptr noundef %1, i32 noundef %2, ptr noundef nonnull captures(none) initializes((0, 1)) %3) unnamed_addr #3 {
  %5 = alloca float, align 4
  %6 = alloca i32, align 4
  store i8 0, ptr %3, align 1, !tbaa !56
  %7 = tail call noundef i64 @_Z9gmx_ftellP8_IO_FILE(ptr noundef %0)
  %8 = icmp slt i64 %7, 0
  br i1 %8, label %34, label %9

9:                                                ; preds = %4
  %10 = tail call fastcc noundef float @_ZL26xtc_get_current_frame_timeP8_IO_FILEP3XDRiPb(ptr noundef %0, ptr noundef %1, i32 noundef %2, ptr noundef nonnull %3)
  %11 = load i8, ptr %3, align 1, !tbaa !56, !range !58, !noundef !59
  %12 = trunc nuw i8 %11 to i1
  br i1 %12, label %13, label %34

13:                                               ; preds = %9
  call void @llvm.lifetime.start.p0(i64 4, ptr nonnull %5) #17
  call void @llvm.lifetime.start.p0(i64 4, ptr nonnull %6) #17
  store i8 0, ptr %3, align 1, !tbaa !56
  %14 = tail call noundef i64 @_Z9gmx_ftellP8_IO_FILE(ptr noundef %0)
  %15 = icmp slt i64 %14, 0
  br i1 %15, label %_ZL23xtc_get_next_frame_timeP8_IO_FILEP3XDRiPb.exit, label %16

16:                                               ; preds = %13
  %17 = call noundef i32 @_Z7xdr_intP3XDRPi(ptr noundef %1, ptr noundef nonnull %6)
  br label %18

18:                                               ; preds = %18, %16
  %19 = call fastcc noundef i32 @_ZL19xtc_at_header_startP8_IO_FILEP3XDRiPiPf(ptr noundef %0, ptr noundef %1, i32 noundef %2, ptr noundef %6, ptr noundef %5)
  switch i32 %19, label %18 [
    i32 1, label %20
    i32 -1, label %25
  ]

20:                                               ; preds = %18
  store i8 1, ptr %3, align 1, !tbaa !56
  %21 = call noundef i32 @_Z9gmx_fseekP8_IO_FILEli(ptr noundef %0, i64 noundef %14, i32 noundef 0)
  %.not.i = icmp eq i32 %21, 0
  br i1 %.not.i, label %23, label %22

22:                                               ; preds = %20
  store i8 0, ptr %3, align 1, !tbaa !56
  br label %_ZL23xtc_get_next_frame_timeP8_IO_FILEP3XDRiPb.exit

23:                                               ; preds = %20
  %24 = load float, ptr %5, align 4, !tbaa !20
  br label %_ZL23xtc_get_next_frame_timeP8_IO_FILEP3XDRiPb.exit

25:                                               ; preds = %18
  %26 = call noundef i32 @_Z9gmx_fseekP8_IO_FILEli(ptr noundef %0, i64 noundef %14, i32 noundef 0)
  br label %_ZL23xtc_get_next_frame_timeP8_IO_FILEP3XDRiPb.exit

_ZL23xtc_get_next_frame_timeP8_IO_FILEP3XDRiPb.exit: ; preds = %13, %22, %23, %25
  %.0.i = phi float [ -1.000000e+00, %22 ], [ %24, %23 ], [ -1.000000e+00, %25 ], [ -1.000000e+00, %13 ]
  call void @llvm.lifetime.end.p0(i64 4, ptr nonnull %6) #17
  call void @llvm.lifetime.end.p0(i64 4, ptr nonnull %5) #17
  %27 = load i8, ptr %3, align 1, !tbaa !56, !range !58, !noundef !59
  %28 = trunc nuw i8 %27 to i1
  br i1 %28, label %29, label %34

29:                                               ; preds = %_ZL23xtc_get_next_frame_timeP8_IO_FILEP3XDRiPb.exit
  %30 = call noundef i32 @_Z9gmx_fseekP8_IO_FILEli(ptr noundef %0, i64 noundef %7, i32 noundef 0)
  %.not = icmp eq i32 %30, 0
  br i1 %.not, label %32, label %31

31:                                               ; preds = %29
  store i8 0, ptr %3, align 1, !tbaa !56
  br label %34

32:                                               ; preds = %29
  %33 = fsub float %.0.i, %10
  br label %34

34:                                               ; preds = %_ZL23xtc_get_next_frame_timeP8_IO_FILEP3XDRiPb.exit, %9, %4, %32, %31
  %.0 = phi float [ -1.000000e+00, %31 ], [ %33, %32 ], [ -1.000000e+00, %4 ], [ -1.000000e+00, %9 ], [ -1.000000e+00, %_ZL23xtc_get_next_frame_timeP8_IO_FILEP3XDRiPb.exit ]
  ret float %.0
}